; Function Attrs: inlinehint mustprogress nounwind uwtable
define internal fastcc void @_ZNSt4pairIPKN5Yosys5RTLIL6ModuleESt6vectorIN12_GLOBAL__N_19FlowGraph4NodeESaIS8_EEED2Ev(ptr noundef nonnull readonly align 8 captures(none) dereferenceable(32) %0) unnamed_addr #4 align 2 personality ptr @__gxx_personality_v0 {
  %2 = getelementptr inbounds nuw i8, ptr %0, i64 8
  %3 = load ptr, ptr %2, align 8, !tbaa !455
  %4 = getelementptr inbounds nuw i8, ptr %0, i64 16
  %5 = load ptr, ptr %4, align 8, !tbaa !457
  %.not4.i.i.i.i = icmp eq ptr %3, %5
  br i1 %.not4.i.i.i.i, label %_ZSt8_DestroyIPN12_GLOBAL__N_19FlowGraph4NodeES2_EvT_S4_RSaIT0_E.exit.i, label %.lr.ph.i.i.i.i

.lr.ph.i.i.i.i:                                   ; preds = %1, %_ZSt8_DestroyIN12_GLOBAL__N_19FlowGraph4NodeEEvPT_.exit.i.i.i.i
  %.05.i.i.i.i = phi ptr [ %15, %_ZSt8_DestroyIN12_GLOBAL__N_19FlowGraph4NodeEEvPT_.exit.i.i.i.i ], [ %3, %1 ]
  %6 = getelementptr inbounds nuw i8, ptr %.05.i.i.i.i, i64 128
  %7 = load ptr, ptr %6, align 8, !tbaa !401
  %.not.i.i.i.i.i.i.i.i.i = icmp eq ptr %7, null
  br i1 %.not.i.i.i.i.i.i.i.i.i, label %_ZSt8_DestroyIN12_GLOBAL__N_19FlowGraph4NodeEEvPT_.exit.i.i.i.i, label %8

8:                                                ; preds = %.lr.ph.i.i.i.i
  %9 = getelementptr inbounds nuw i8, ptr %.05.i.i.i.i, i64 144
  %10 = load ptr, ptr %9, align 8, !tbaa !403
  %11 = ptrtoint ptr %10 to i64
  %12 = ptrtoint ptr %7 to i64
  %13 = sub i64 %11, %12
  tail call void @_ZdlPvm(ptr noundef nonnull %7, i64 noundef %13) #35
  br label %_ZSt8_DestroyIN12_GLOBAL__N_19FlowGraph4NodeEEvPT_.exit.i.i.i.i

_ZSt8_DestroyIN12_GLOBAL__N_19FlowGraph4NodeEEvPT_.exit.i.i.i.i: ; preds = %8, %.lr.ph.i.i.i.i
  %14 = getelementptr inbounds nuw i8, ptr %.05.i.i.i.i, i64 8
  tail call void @_ZNSt4pairIN5Yosys5RTLIL7SigSpecES2_ED2Ev(ptr noundef nonnull align 8 dereferenceable(112) %14) #34
  %15 = getelementptr inbounds nuw i8, ptr %.05.i.i.i.i, i64 176
  %.not.i.i.i.i = icmp eq ptr %15, %5
  br i1 %.not.i.i.i.i, label %_ZSt8_DestroyIPN12_GLOBAL__N_19FlowGraph4NodeES2_EvT_S4_RSaIT0_E.exitthread-pre-split.i, label %.lr.ph.i.i.i.i, !llvm.loop !458

_ZSt8_DestroyIPN12_GLOBAL__N_19FlowGraph4NodeES2_EvT_S4_RSaIT0_E.exitthread-pre-split.i: ; preds = %_ZSt8_DestroyIN12_GLOBAL__N_19FlowGraph4NodeEEvPT_.exit.i.i.i.i
  %.val.pr.i = load ptr, ptr %2, align 8, !tbaa !455
  br label %_ZSt8_DestroyIPN12_GLOBAL__N_19FlowGraph4NodeES2_EvT_S4_RSaIT0_E.exit.i

_ZSt8_DestroyIPN12_GLOBAL__N_19FlowGraph4NodeES2_EvT_S4_RSaIT0_E.exit.i: ; preds = %_ZSt8_DestroyIPN12_GLOBAL__N_19FlowGraph4NodeES2_EvT_S4_RSaIT0_E.exitthread-pre-split.i, %1
  %.val.i = phi ptr [ %.val.pr.i, %_ZSt8_DestroyIPN12_GLOBAL__N_19FlowGraph4NodeES2_EvT_S4_RSaIT0_E.exitthread-pre-split.i ], [ %3, %1 ]
  %.not.i.i.i = icmp eq ptr %.val.i, null
  br i1 %.not.i.i.i, label %_ZNSt6vectorIN12_GLOBAL__N_19FlowGraph4NodeESaIS2_EED2Ev.exit, label %16

16:                                               ; preds = %_ZSt8_DestroyIPN12_GLOBAL__N_19FlowGraph4NodeES2_EvT_S4_RSaIT0_E.exit.i
  %17 = getelementptr inbounds nuw i8, ptr %0, i64 24
  %.val1.i = load ptr, ptr %17, align 8, !tbaa !459
  %18 = ptrtoint ptr %.val1.i to i64
  %19 = ptrtoint ptr %.val.i to i64
  %20 = sub i64 %18, %19
  tail call void @_ZdlPvm(ptr noundef nonnull %.val.i, i64 noundef %20) #35
  br label %_ZNSt6vectorIN12_GLOBAL__N_19FlowGraph4NodeESaIS2_EED2Ev.exit

_ZNSt6vectorIN12_GLOBAL__N_19FlowGraph4NodeESaIS2_EED2Ev.exit: ; preds = %_ZSt8_DestroyIPN12_GLOBAL__N_19FlowGraph4NodeES2_EvT_S4_RSaIT0_E.exit.i, %16
  ret void
}